; Function Attrs: nounwind uwtable
define internal void @zend_generator_iterator_rewind(ptr noundef readonly captures(none) %0) #0 {
  %2 = getelementptr inbounds nuw i8, ptr %0, i64 56
  %3 = load ptr, ptr %2, align 8, !tbaa !24
  %4 = getelementptr inbounds nuw i8, ptr %3, i64 80
  %5 = load i8, ptr %4, align 8, !tbaa !24
  %6 = icmp eq i8 %5, 0
  br i1 %6, label %7, label %zend_generator_ensure_initialized.exit.i, !prof !26

7:                                                ; preds = %1
  %8 = getelementptr inbounds nuw i8, ptr %3, i64 56
  %9 = load ptr, ptr %8, align 8, !tbaa !56
  %.not.i.i = icmp eq ptr %9, null
  br i1 %.not.i.i, label %zend_generator_ensure_initialized.exit.i, label %10, !prof !26

10:                                               ; preds = %7
  %11 = getelementptr inbounds nuw i8, ptr %3, i64 152
  %12 = load ptr, ptr %11, align 8, !tbaa !94
  %13 = icmp eq ptr %12, null
  br i1 %13, label %14, label %zend_generator_ensure_initialized.exit.i, !prof !58

14:                                               ; preds = %10
  tail call void @zend_generator_resume(ptr noundef nonnull %3)
  %15 = getelementptr inbounds nuw i8, ptr %3, i64 272
  %16 = load i8, ptr %15, align 8, !tbaa !99
  %17 = or i8 %16, 4
  store i8 %17, ptr %15, align 8, !tbaa !99
  br label %zend_generator_ensure_initialized.exit.i

zend_generator_ensure_initialized.exit.i:         ; preds = %14, %10, %7, %1
  %18 = getelementptr inbounds nuw i8, ptr %3, i64 272
  %19 = load i8, ptr %18, align 8, !tbaa !99
  %20 = and i8 %19, 4
  %.not.i = icmp eq i8 %20, 0
  br i1 %.not.i, label %21, label %zend_generator_rewind.exit

21:                                               ; preds = %zend_generator_ensure_initialized.exit.i
  %22 = tail call ptr @zend_throw_exception(ptr noundef null, ptr noundef nonnull @.str.7, i64 noundef 0) #11
  br label %zend_generator_rewind.exit

zend_generator_rewind.exit:                       ; preds = %zend_generator_ensure_initialized.exit.i, %21
  ret void
}